; Function Attrs: nounwind uwtable
define dso_local noundef ptr @makeNullConst(i32 noundef %0, i32 noundef %1, i32 noundef %2) local_unnamed_addr #0 {
  %4 = alloca i16, align 2
  %5 = alloca i8, align 1
  call void @llvm.lifetime.start.p0(i64 2, ptr nonnull %4) #7
  call void @llvm.lifetime.start.p0(i64 1, ptr nonnull %5) #7
  call void @get_typlenbyval(i32 noundef %0, ptr noundef nonnull %4, ptr noundef nonnull %5) #7
  %6 = load i16, ptr %4, align 2
  %7 = sext i16 %6 to i32
  %8 = load i8, ptr %5, align 1, !range !4, !noundef !5
  %9 = call noundef ptr @palloc0(i64 noundef 40) #7
  store i32 7, ptr %9, align 4
  %10 = getelementptr inbounds nuw i8, ptr %9, i64 4
  store i32 %0, ptr %10, align 4
  %11 = getelementptr inbounds nuw i8, ptr %9, i64 8
  store i32 %1, ptr %11, align 8
  %12 = getelementptr inbounds nuw i8, ptr %9, i64 12
  store i32 %2, ptr %12, align 4
  %13 = getelementptr inbounds nuw i8, ptr %9, i64 16
  store i32 %7, ptr %13, align 8
  %14 = getelementptr inbounds nuw i8, ptr %9, i64 24
  store i64 0, ptr %14, align 8
  %15 = getelementptr inbounds nuw i8, ptr %9, i64 32
  store i8 1, ptr %15, align 8
  %16 = getelementptr inbounds nuw i8, ptr %9, i64 33
  store i8 %8, ptr %16, align 1
  %17 = getelementptr inbounds nuw i8, ptr %9, i64 36
  store i32 -1, ptr %17, align 4
  call void @llvm.lifetime.end.p0(i64 1, ptr nonnull %5) #7
  call void @llvm.lifetime.end.p0(i64 2, ptr nonnull %4) #7
  ret ptr %9
}